target datalayout = "e-m:e-p270:32:32-p271:32:32-p272:64:64-i64:64-i128:128-f80:128-n8:16:32:64-S128"
target triple = "x86_64-pc-linux-gnu"

; Function Attrs: mustprogress uwtable
define void @_ZN4YAML6Stream3eatEi(ptr noundef nonnull align 8 dereferenceable(136) %0, i32 noundef %1) #0 align 2 {
  %3 = alloca ptr, align 8
  %4 = alloca i32, align 4
  %5 = alloca i32, align 4
  store ptr %0, ptr %3, align 8, !tbaa !3
  store i32 %1, ptr %4, align 4, !tbaa !30
  %6 = load ptr, ptr %3, align 8
  call void @llvm.lifetime.start.p0(i64 4, ptr %5) #15
  store i32 0, ptr %5, align 4, !tbaa !30
  br label %7

7:                                                ; preds = %14, %2
  %8 = load i32, ptr %5, align 4, !tbaa !30
  %9 = load i32, ptr %4, align 4, !tbaa !30
  %10 = icmp slt i32 %8, %9
  br i1 %10, label %12, label %11

11:                                               ; preds = %7
  call void @llvm.lifetime.end.p0(i64 4, ptr %5) #15
  br label %17

12:                                               ; preds = %7
  %13 = call noundef signext i8 @_ZN4YAML6Stream3getEv(ptr noundef nonnull align 8 dereferenceable(136) %6)
  br label %14

14:                                               ; preds = %12
  %15 = load i32, ptr %5, align 4, !tbaa !30
  %16 = add nsw i32 %15, 1
  store i32 %16, ptr %5, align 4, !tbaa !30
  br label %7, !llvm.loop !62

17:                                               ; preds = %11
  ret void
}