; Function Attrs: mustprogress uwtable
define void @_ZN4YAML6Stream3eatEi(ptr noundef nonnull align 8 dereferenceable(136) %0, i32 noundef %1) local_unnamed_addr #0 align 2 {
  %3 = icmp sgt i32 %1, 0
  br i1 %3, label %.lr.ph, label %._crit_edge

._crit_edge:                                      ; preds = %.lr.ph, %2
  ret void

.lr.ph:                                           ; preds = %2, %.lr.ph
  %.03 = phi i32 [ %5, %.lr.ph ], [ 0, %2 ]
  %4 = tail call noundef signext i8 @_ZN4YAML6Stream3getEv(ptr noundef nonnull align 8 dereferenceable(136) %0)
  %5 = add nuw nsw i32 %.03, 1
  %exitcond.not = icmp eq i32 %5, %1
  br i1 %exitcond.not, label %._crit_edge, label %.lr.ph, !llvm.loop !79
}